; Function Attrs: mustprogress nounwind uwtable
define internal fastcc void @_ZN12_GLOBAL__N_111StmtPrinter30VisitBinaryConditionalOperatorEPN5clang25BinaryConditionalOperatorE(ptr noundef nonnull align 8 dereferenceable(80) %0, ptr noundef readonly captures(none) %1) unnamed_addr #0 align 2 {
  %3 = getelementptr inbounds nuw i8, ptr %1, i64 24
  %4 = load ptr, ptr %3, align 8
  %.not.i = icmp eq ptr %4, null
  br i1 %.not.i, label %15, label %5

5:                                                ; preds = %2
  %6 = getelementptr inbounds nuw i8, ptr %0, i64 16
  %7 = load ptr, ptr %6, align 8
  %.not.i8 = icmp eq ptr %7, null
  br i1 %.not.i8, label %14, label %8

8:                                                ; preds = %5
  %9 = load ptr, ptr %0, align 8
  %10 = load ptr, ptr %7, align 8
  %11 = getelementptr inbounds nuw i8, ptr %10, i64 16
  %12 = load ptr, ptr %11, align 8
  %13 = tail call noundef zeroext i1 %12(ptr noundef nonnull align 8 dereferenceable(8) %7, ptr noundef nonnull %4, ptr noundef nonnull align 8 dereferenceable(48) %9) #19
  br i1 %13, label %_ZN12_GLOBAL__N_111StmtPrinter9PrintExprEPN5clang4ExprE.exit, label %14

14:                                               ; preds = %8, %5
  tail call fastcc void @_ZN5clang15StmtVisitorBaseISt11add_pointerN12_GLOBAL__N_111StmtPrinterEvJEE5VisitEPNS_4StmtE(ptr noundef nonnull align 8 dereferenceable(80) %0, ptr noundef nonnull %4)
  br label %_ZN12_GLOBAL__N_111StmtPrinter9PrintExprEPN5clang4ExprE.exit

15:                                               ; preds = %2
  %16 = load ptr, ptr %0, align 8
  %17 = getelementptr inbounds nuw i8, ptr %16, i64 24
  %18 = load ptr, ptr %17, align 8
  %19 = getelementptr inbounds nuw i8, ptr %16, i64 32
  %20 = load ptr, ptr %19, align 8
  %21 = ptrtoint ptr %18 to i64
  %22 = ptrtoint ptr %20 to i64
  %23 = sub i64 %21, %22
  %24 = icmp ult i64 %23, 11
  br i1 %24, label %25, label %27

25:                                               ; preds = %15
  %26 = tail call noundef nonnull align 8 dereferenceable(48) ptr @_ZN4llvm11raw_ostream5writeEPKcm(ptr noundef nonnull align 8 dereferenceable(48) %16, ptr noundef nonnull @.str.4, i64 noundef 11) #19
  br label %_ZN12_GLOBAL__N_111StmtPrinter9PrintExprEPN5clang4ExprE.exit

27:                                               ; preds = %15
  tail call void @llvm.memcpy.p0.p0.i64(ptr noundef nonnull align 1 dereferenceable(11) %20, ptr noundef nonnull align 1 dereferenceable(11) @.str.4, i64 11, i1 false)
  %28 = load ptr, ptr %19, align 8
  %29 = getelementptr inbounds nuw i8, ptr %28, i64 11
  store ptr %29, ptr %19, align 8
  br label %_ZN12_GLOBAL__N_111StmtPrinter9PrintExprEPN5clang4ExprE.exit

_ZN12_GLOBAL__N_111StmtPrinter9PrintExprEPN5clang4ExprE.exit: ; preds = %27, %25, %14, %8
  %30 = load ptr, ptr %0, align 8
  %31 = getelementptr inbounds nuw i8, ptr %30, i64 24
  %32 = load ptr, ptr %31, align 8
  %33 = getelementptr inbounds nuw i8, ptr %30, i64 32
  %34 = load ptr, ptr %33, align 8
  %35 = ptrtoint ptr %32 to i64
  %36 = ptrtoint ptr %34 to i64
  %37 = sub i64 %35, %36
  %38 = icmp ult i64 %37, 4
  br i1 %38, label %39, label %41

39:                                               ; preds = %_ZN12_GLOBAL__N_111StmtPrinter9PrintExprEPN5clang4ExprE.exit
  %40 = tail call noundef nonnull align 8 dereferenceable(48) ptr @_ZN4llvm11raw_ostream5writeEPKcm(ptr noundef nonnull align 8 dereferenceable(48) %30, ptr noundef nonnull @.str.227, i64 noundef 4) #19
  br label %_ZN4llvm11raw_ostreamlsEPKc.exit

41:                                               ; preds = %_ZN12_GLOBAL__N_111StmtPrinter9PrintExprEPN5clang4ExprE.exit
  store i32 540688160, ptr %34, align 1
  %42 = load ptr, ptr %33, align 8
  %43 = getelementptr inbounds nuw i8, ptr %42, i64 4
  store ptr %43, ptr %33, align 8
  br label %_ZN4llvm11raw_ostreamlsEPKc.exit

_ZN4llvm11raw_ostreamlsEPKc.exit:                 ; preds = %39, %41
  %44 = getelementptr inbounds nuw i8, ptr %1, i64 48
  %45 = load ptr, ptr %44, align 8
  %.not.i3 = icmp eq ptr %45, null
  br i1 %.not.i3, label %56, label %46

46:                                               ; preds = %_ZN4llvm11raw_ostreamlsEPKc.exit
  %47 = getelementptr inbounds nuw i8, ptr %0, i64 16
  %48 = load ptr, ptr %47, align 8
  %.not.i12 = icmp eq ptr %48, null
  br i1 %.not.i12, label %55, label %49

49:                                               ; preds = %46
  %50 = load ptr, ptr %0, align 8
  %51 = load ptr, ptr %48, align 8
  %52 = getelementptr inbounds nuw i8, ptr %51, i64 16
  %53 = load ptr, ptr %52, align 8
  %54 = tail call noundef zeroext i1 %53(ptr noundef nonnull align 8 dereferenceable(8) %48, ptr noundef nonnull %45, ptr noundef nonnull align 8 dereferenceable(48) %50) #19
  br i1 %54, label %_ZN12_GLOBAL__N_111StmtPrinter9PrintExprEPN5clang4ExprE.exit4, label %55

55:                                               ; preds = %49, %46
  tail call fastcc void @_ZN5clang15StmtVisitorBaseISt11add_pointerN12_GLOBAL__N_111StmtPrinterEvJEE5VisitEPNS_4StmtE(ptr noundef nonnull align 8 dereferenceable(80) %0, ptr noundef nonnull %45)
  br label %_ZN12_GLOBAL__N_111StmtPrinter9PrintExprEPN5clang4ExprE.exit4

56:                                               ; preds = %_ZN4llvm11raw_ostreamlsEPKc.exit
  %57 = load ptr, ptr %0, align 8
  %58 = getelementptr inbounds nuw i8, ptr %57, i64 24
  %59 = load ptr, ptr %58, align 8
  %60 = getelementptr inbounds nuw i8, ptr %57, i64 32
  %61 = load ptr, ptr %60, align 8
  %62 = ptrtoint ptr %59 to i64
  %63 = ptrtoint ptr %61 to i64
  %64 = sub i64 %62, %63
  %65 = icmp ult i64 %64, 11
  br i1 %65, label %66, label %68

66:                                               ; preds = %56
  %67 = tail call noundef nonnull align 8 dereferenceable(48) ptr @_ZN4llvm11raw_ostream5writeEPKcm(ptr noundef nonnull align 8 dereferenceable(48) %57, ptr noundef nonnull @.str.4, i64 noundef 11) #19
  br label %_ZN12_GLOBAL__N_111StmtPrinter9PrintExprEPN5clang4ExprE.exit4

68:                                               ; preds = %56
  tail call void @llvm.memcpy.p0.p0.i64(ptr noundef nonnull align 1 dereferenceable(11) %61, ptr noundef nonnull align 1 dereferenceable(11) @.str.4, i64 11, i1 false)
  %69 = load ptr, ptr %60, align 8
  %70 = getelementptr inbounds nuw i8, ptr %69, i64 11
  store ptr %70, ptr %60, align 8
  br label %_ZN12_GLOBAL__N_111StmtPrinter9PrintExprEPN5clang4ExprE.exit4

_ZN12_GLOBAL__N_111StmtPrinter9PrintExprEPN5clang4ExprE.exit4: ; preds = %68, %66, %55, %49
  ret void
}